target datalayout = "e-m:e-p270:32:32-p271:32:32-p272:64:64-i64:64-i128:128-f80:128-n8:16:32:64-S128"
target triple = "x86_64-pc-linux-gnu"

%struct.expert_field = type { i32, i32 }
%struct._packet_info = type { ptr, ptr, i32, i32, %struct.nstime_t, %struct.nstime_t, %struct.nstime_t, i8, ptr, ptr, ptr, ptr, %struct._address, %struct._address, %struct._address, %struct._address, %struct._address, %struct._address, i32, ptr, i8, [3 x i8], %struct.anon, i32, i32, i32, i32, ptr, i8, ptr, ptr, i16, i16, i32, i32, i16, i32, i32, ptr, ptr, ptr, i8, i8, i16, i16, i16, i32, i16, i16, ptr, ptr, ptr, ptr, ptr, i32, i32 }
%struct.nstime_t = type { i64, i32 }
%struct._address = type { i32, i32, ptr, ptr }
%struct.anon = type { i8, [3 x i8] }

@hf_uftp_destlist = internal global i32 0, align 4
@hf_uftp_dest = internal global i32 0, align 4
@hf_uftp_infoack = internal global i32 0, align 4
@hf_uftp_infoack_func = internal global i32 0, align 4
@hf_uftp_infoack_flags = internal global i32 0, align 4
@hf_uftp_infoack_file_id = internal global i32 0, align 4
@hf_uftp_infoack_destcount = internal global i32 0, align 4
@hf_uftp_infoack_reserved = internal global i32 0, align 4
@hf_uftp_infoack_verify_data = internal global i32 0, align 4
@ett_uftp_infoack = internal global i32 0, align 4
@ett_uftp_infoack_flags = internal global i32 0, align 4
@ett_uftp_destlist = internal global i32 0, align 4
@ei_uftp_length_invalid = internal global %struct.expert_field zeroinitializer, align 4
@.str.289 = private unnamed_addr constant [19 x i8] c"Invalid length: %d\00", align 1
@.str.292 = private unnamed_addr constant [35 x i8] c"Invalid length, len = %d, count=%d\00", align 1
@.str.293 = private unnamed_addr constant [6 x i8] c":%04X\00", align 1
@infoack_flags = internal constant [3 x ptr] [ptr @hf_uftp_infoack_flags_partial, ptr @hf_uftp_infoack_flags_reserved, ptr null], align 16

; Function Attrs: null_pointer_is_valid sspstrong uwtable
define internal void @dissect_uftp_infoack(ptr noundef %0, ptr noundef %1, ptr noundef %2) #0 {
  %4 = alloca ptr, align 8
  %5 = alloca ptr, align 8
  %6 = alloca ptr, align 8
  %7 = alloca ptr, align 8
  %8 = alloca ptr, align 8
  %9 = alloca ptr, align 8
  %10 = alloca ptr, align 8
  %11 = alloca i32, align 4
  %12 = alloca i16, align 2
  %13 = alloca i16, align 2
  %14 = alloca i16, align 2
  %15 = alloca i32, align 4
  store ptr %0, ptr %4, align 8
  store ptr %1, ptr %5, align 8
  store ptr %2, ptr %6, align 8
  call void @llvm.lifetime.start.p0(i64 8, ptr %7) #3
  store ptr null, ptr %7, align 8
  call void @llvm.lifetime.start.p0(i64 8, ptr %8) #3
  store ptr null, ptr %8, align 8
  call void @llvm.lifetime.start.p0(i64 8, ptr %9) #3
  store ptr null, ptr %9, align 8
  call void @llvm.lifetime.start.p0(i64 8, ptr %10) #3
  store ptr null, ptr %10, align 8
  call void @llvm.lifetime.start.p0(i64 4, ptr %11) #3
  store i32 0, ptr %11, align 4
  call void @llvm.lifetime.start.p0(i64 2, ptr %12) #3
  call void @llvm.lifetime.start.p0(i64 2, ptr %13) #3
  call void @llvm.lifetime.start.p0(i64 2, ptr %14) #3
  %16 = load ptr, ptr %4, align 8
  %17 = call i32 @tvb_reported_length(ptr noundef %16)
  %18 = icmp ult i32 %17, 20
  br i1 %18, label %19, label %27

19:                                               ; preds = %3
  %20 = load ptr, ptr %6, align 8
  %21 = load ptr, ptr %5, align 8
  %22 = load ptr, ptr %4, align 8
  %23 = load i32, ptr %11, align 4
  %24 = load ptr, ptr %4, align 8
  %25 = call i32 @tvb_reported_length(ptr noundef %24)
  %26 = call ptr (ptr, ptr, ptr, ptr, i32, i32, ptr, ...) @proto_tree_add_expert_format(ptr noundef %20, ptr noundef %21, ptr noundef @ei_uftp_length_invalid, ptr noundef %22, i32 noundef %23, i32 noundef -1, ptr noundef @.str.289, i32 noundef %25)
  store i32 1, ptr %15, align 4
  br label %145

27:                                               ; preds = %3
  %28 = load ptr, ptr %4, align 8
  %29 = call zeroext i16 @tvb_get_ntohs(ptr noundef %28, i32 noundef 4)
  store i16 %29, ptr %13, align 2
  %30 = load ptr, ptr %4, align 8
  %31 = call i32 @tvb_reported_length(ptr noundef %30)
  %32 = load i16, ptr %13, align 2
  %33 = zext i16 %32 to i32
  %34 = mul i32 %33, 4
  %35 = add i32 20, %34
  %36 = icmp slt i32 %31, %35
  br i1 %36, label %37, label %47

37:                                               ; preds = %27
  %38 = load ptr, ptr %6, align 8
  %39 = load ptr, ptr %5, align 8
  %40 = load ptr, ptr %4, align 8
  %41 = load i32, ptr %11, align 4
  %42 = load ptr, ptr %4, align 8
  %43 = call i32 @tvb_reported_length(ptr noundef %42)
  %44 = load i16, ptr %13, align 2
  %45 = zext i16 %44 to i32
  %46 = call ptr (ptr, ptr, ptr, ptr, i32, i32, ptr, ...) @proto_tree_add_expert_format(ptr noundef %38, ptr noundef %39, ptr noundef @ei_uftp_length_invalid, ptr noundef %40, i32 noundef %41, i32 noundef -1, ptr noundef @.str.292, i32 noundef %43, i32 noundef %45)
  store i32 1, ptr %15, align 4
  br label %145

47:                                               ; preds = %27
  %48 = load ptr, ptr %4, align 8
  %49 = call zeroext i16 @tvb_get_ntohs(ptr noundef %48, i32 noundef 2)
  store i16 %49, ptr %12, align 2
  %50 = load i16, ptr %12, align 2
  %51 = zext i16 %50 to i32
  %52 = icmp sgt i32 %51, 0
  br i1 %52, label %53, label %59

53:                                               ; preds = %47
  %54 = load ptr, ptr %5, align 8
  %55 = getelementptr inbounds nuw %struct._packet_info, ptr %54, i32 0, i32 1
  %56 = load ptr, ptr %55, align 8
  %57 = load i16, ptr %12, align 2
  %58 = zext i16 %57 to i32
  call void (ptr, i32, ptr, ...) @col_append_fstr(ptr noundef %56, i32 noundef 25, ptr noundef @.str.293, i32 noundef %58)
  br label %59

59:                                               ; preds = %53, %47
  %60 = load ptr, ptr %6, align 8
  %61 = load i32, ptr @hf_uftp_infoack, align 4
  %62 = load ptr, ptr %4, align 8
  %63 = load i32, ptr %11, align 4
  %64 = call ptr @proto_tree_add_item(ptr noundef %60, i32 noundef %61, ptr noundef %62, i32 noundef %63, i32 noundef -1, i32 noundef 0)
  store ptr %64, ptr %7, align 8
  %65 = load ptr, ptr %7, align 8
  %66 = load i32, ptr @ett_uftp_infoack, align 4
  %67 = call ptr @proto_item_add_subtree(ptr noundef %65, i32 noundef %66)
  store ptr %67, ptr %9, align 8
  %68 = load ptr, ptr %9, align 8
  %69 = load i32, ptr @hf_uftp_infoack_func, align 4
  %70 = load ptr, ptr %4, align 8
  %71 = load i32, ptr %11, align 4
  %72 = call ptr @proto_tree_add_item(ptr noundef %68, i32 noundef %69, ptr noundef %70, i32 noundef %71, i32 noundef 1, i32 noundef 0)
  %73 = load i32, ptr %11, align 4
  %74 = add i32 %73, 1
  store i32 %74, ptr %11, align 4
  %75 = load ptr, ptr %9, align 8
  %76 = load ptr, ptr %4, align 8
  %77 = load i32, ptr %11, align 4
  %78 = load i32, ptr @hf_uftp_infoack_flags, align 4
  %79 = load i32, ptr @ett_uftp_infoack_flags, align 4
  %80 = call ptr @proto_tree_add_bitmask(ptr noundef %75, ptr noundef %76, i32 noundef %77, i32 noundef %78, i32 noundef %79, ptr noundef @infoack_flags, i32 noundef 0)
  %81 = load i32, ptr %11, align 4
  %82 = add i32 %81, 1
  store i32 %82, ptr %11, align 4
  %83 = load ptr, ptr %9, align 8
  %84 = load i32, ptr @hf_uftp_infoack_file_id, align 4
  %85 = load ptr, ptr %4, align 8
  %86 = load i32, ptr %11, align 4
  %87 = call ptr @proto_tree_add_item(ptr noundef %83, i32 noundef %84, ptr noundef %85, i32 noundef %86, i32 noundef 2, i32 noundef 0)
  %88 = load i32, ptr %11, align 4
  %89 = add i32 %88, 2
  store i32 %89, ptr %11, align 4
  %90 = load ptr, ptr %9, align 8
  %91 = load i32, ptr @hf_uftp_infoack_destcount, align 4
  %92 = load ptr, ptr %4, align 8
  %93 = load i32, ptr %11, align 4
  %94 = call ptr @proto_tree_add_item(ptr noundef %90, i32 noundef %91, ptr noundef %92, i32 noundef %93, i32 noundef 2, i32 noundef 0)
  %95 = load i32, ptr %11, align 4
  %96 = add i32 %95, 2
  store i32 %96, ptr %11, align 4
  %97 = load ptr, ptr %9, align 8
  %98 = load i32, ptr @hf_uftp_infoack_reserved, align 4
  %99 = load ptr, ptr %4, align 8
  %100 = load i32, ptr %11, align 4
  %101 = call ptr @proto_tree_add_item(ptr noundef %97, i32 noundef %98, ptr noundef %99, i32 noundef %100, i32 noundef 2, i32 noundef 0)
  %102 = load i32, ptr %11, align 4
  %103 = add i32 %102, 2
  store i32 %103, ptr %11, align 4
  %104 = load ptr, ptr %9, align 8
  %105 = load i32, ptr @hf_uftp_infoack_verify_data, align 4
  %106 = load ptr, ptr %4, align 8
  %107 = load i32, ptr %11, align 4
  %108 = call ptr @proto_tree_add_item(ptr noundef %104, i32 noundef %105, ptr noundef %106, i32 noundef %107, i32 noundef 12, i32 noundef 0)
  %109 = load i32, ptr %11, align 4
  %110 = add i32 %109, 12
  store i32 %110, ptr %11, align 4
  %111 = load i16, ptr %13, align 2
  %112 = zext i16 %111 to i32
  %113 = icmp sgt i32 %112, 0
  br i1 %113, label %114, label %126

114:                                              ; preds = %59
  %115 = load ptr, ptr %9, align 8
  %116 = load i32, ptr @hf_uftp_destlist, align 4
  %117 = load ptr, ptr %4, align 8
  %118 = load i32, ptr %11, align 4
  %119 = load i16, ptr %13, align 2
  %120 = zext i16 %119 to i32
  %121 = mul i32 %120, 4
  %122 = call ptr @proto_tree_add_item(ptr noundef %115, i32 noundef %116, ptr noundef %117, i32 noundef %118, i32 noundef %121, i32 noundef 0)
  store ptr %122, ptr %8, align 8
  %123 = load ptr, ptr %8, align 8
  %124 = load i32, ptr @ett_uftp_destlist, align 4
  %125 = call ptr @proto_item_add_subtree(ptr noundef %123, i32 noundef %124)
  store ptr %125, ptr %10, align 8
  br label %126

126:                                              ; preds = %114, %59
  store i16 0, ptr %14, align 2
  br label %127

127:                                              ; preds = %141, %126
  %128 = load i16, ptr %14, align 2
  %129 = zext i16 %128 to i32
  %130 = load i16, ptr %13, align 2
  %131 = zext i16 %130 to i32
  %132 = icmp slt i32 %129, %131
  br i1 %132, label %133, label %144

133:                                              ; preds = %127
  %134 = load ptr, ptr %10, align 8
  %135 = load i32, ptr @hf_uftp_dest, align 4
  %136 = load ptr, ptr %4, align 8
  %137 = load i32, ptr %11, align 4
  %138 = call ptr @proto_tree_add_item(ptr noundef %134, i32 noundef %135, ptr noundef %136, i32 noundef %137, i32 noundef 4, i32 noundef 0)
  %139 = load i32, ptr %11, align 4
  %140 = add i32 %139, 4
  store i32 %140, ptr %11, align 4
  br label %141

141:                                              ; preds = %133
  %142 = load i16, ptr %14, align 2
  %143 = add i16 %142, 1
  store i16 %143, ptr %14, align 2
  br label %127, !llvm.loop !13

144:                                              ; preds = %127
  store i32 0, ptr %15, align 4
  br label %145

145:                                              ; preds = %144, %37, %19
  call void @llvm.lifetime.end.p0(i64 2, ptr %14) #3
  call void @llvm.lifetime.end.p0(i64 2, ptr %13) #3
  call void @llvm.lifetime.end.p0(i64 2, ptr %12) #3
  call void @llvm.lifetime.end.p0(i64 4, ptr %11) #3
  call void @llvm.lifetime.end.p0(i64 8, ptr %10) #3
  call void @llvm.lifetime.end.p0(i64 8, ptr %9) #3
  call void @llvm.lifetime.end.p0(i64 8, ptr %8) #3
  call void @llvm.lifetime.end.p0(i64 8, ptr %7) #3
  %146 = load i32, ptr %15, align 4
  switch i32 %146, label %148 [
    i32 0, label %147
    i32 1, label %147
  ]

147:                                              ; preds = %145, %145
  ret void

148:                                              ; preds = %145
  unreachable
}