; Function Attrs: null_pointer_is_valid sspstrong uwtable
define internal fastcc void @dissect_uftp_infoack(ptr noundef %0, ptr noundef %1, ptr noundef %2) unnamed_addr #0 {
  %4 = tail call i32 @tvb_reported_length(ptr noundef %0)
  %5 = icmp ult i32 %4, 20
  br i1 %5, label %6, label %9

6:                                                ; preds = %3
  %7 = tail call i32 @tvb_reported_length(ptr noundef %0)
  %8 = tail call ptr (ptr, ptr, ptr, ptr, i32, i32, ptr, ...) @proto_tree_add_expert_format(ptr noundef %2, ptr noundef %1, ptr noundef nonnull @ei_uftp_length_invalid, ptr noundef %0, i32 noundef 0, i32 noundef -1, ptr noundef nonnull @.str.289, i32 noundef %7)
  br label %.loopexit

9:                                                ; preds = %3
  %10 = tail call zeroext i16 @tvb_get_ntohs(ptr noundef %0, i32 noundef 4)
  %11 = tail call i32 @tvb_reported_length(ptr noundef %0)
  %12 = zext i16 %10 to i32
  %13 = shl nuw nsw i32 %12, 2
  %14 = add nuw nsw i32 %13, 20
  %15 = icmp slt i32 %11, %14
  br i1 %15, label %16, label %19

16:                                               ; preds = %9
  %17 = tail call i32 @tvb_reported_length(ptr noundef %0)
  %18 = tail call ptr (ptr, ptr, ptr, ptr, i32, i32, ptr, ...) @proto_tree_add_expert_format(ptr noundef %2, ptr noundef %1, ptr noundef nonnull @ei_uftp_length_invalid, ptr noundef %0, i32 noundef 0, i32 noundef -1, ptr noundef nonnull @.str.292, i32 noundef %17, i32 noundef %12)
  br label %.loopexit

19:                                               ; preds = %9
  %20 = tail call zeroext i16 @tvb_get_ntohs(ptr noundef %0, i32 noundef 2)
  %.not = icmp eq i16 %20, 0
  br i1 %.not, label %25, label %21

21:                                               ; preds = %19
  %22 = zext i16 %20 to i32
  %23 = getelementptr inbounds nuw i8, ptr %1, i64 8
  %24 = load ptr, ptr %23, align 8
  tail call void (ptr, i32, ptr, ...) @col_append_fstr(ptr noundef %24, i32 noundef 25, ptr noundef nonnull @.str.293, i32 noundef %22)
  br label %25

25:                                               ; preds = %21, %19
  %26 = load i32, ptr @hf_uftp_infoack, align 4
  %27 = tail call ptr @proto_tree_add_item(ptr noundef %2, i32 noundef %26, ptr noundef %0, i32 noundef 0, i32 noundef -1, i32 noundef 0)
  %28 = load i32, ptr @ett_uftp_infoack, align 4
  %29 = tail call ptr @proto_item_add_subtree(ptr noundef %27, i32 noundef %28)
  %30 = load i32, ptr @hf_uftp_infoack_func, align 4
  %31 = tail call ptr @proto_tree_add_item(ptr noundef %29, i32 noundef %30, ptr noundef %0, i32 noundef 0, i32 noundef 1, i32 noundef 0)
  %32 = load i32, ptr @hf_uftp_infoack_flags, align 4
  %33 = load i32, ptr @ett_uftp_infoack_flags, align 4
  %34 = tail call ptr @proto_tree_add_bitmask(ptr noundef %29, ptr noundef %0, i32 noundef 1, i32 noundef %32, i32 noundef %33, ptr noundef nonnull @infoack_flags, i32 noundef 0)
  %35 = load i32, ptr @hf_uftp_infoack_file_id, align 4
  %36 = tail call ptr @proto_tree_add_item(ptr noundef %29, i32 noundef %35, ptr noundef %0, i32 noundef 2, i32 noundef 2, i32 noundef 0)
  %37 = load i32, ptr @hf_uftp_infoack_destcount, align 4
  %38 = tail call ptr @proto_tree_add_item(ptr noundef %29, i32 noundef %37, ptr noundef %0, i32 noundef 4, i32 noundef 2, i32 noundef 0)
  %39 = load i32, ptr @hf_uftp_infoack_reserved, align 4
  %40 = tail call ptr @proto_tree_add_item(ptr noundef %29, i32 noundef %39, ptr noundef %0, i32 noundef 6, i32 noundef 2, i32 noundef 0)
  %41 = load i32, ptr @hf_uftp_infoack_verify_data, align 4
  %42 = tail call ptr @proto_tree_add_item(ptr noundef %29, i32 noundef %41, ptr noundef %0, i32 noundef 8, i32 noundef 12, i32 noundef 0)
  %.not62 = icmp eq i16 %10, 0
  br i1 %.not62, label %.loopexit, label %.lr.ph.preheader

.lr.ph.preheader:                                 ; preds = %25
  %43 = load i32, ptr @hf_uftp_destlist, align 4
  %44 = tail call ptr @proto_tree_add_item(ptr noundef %29, i32 noundef %43, ptr noundef %0, i32 noundef 20, i32 noundef %13, i32 noundef 0)
  %45 = load i32, ptr @ett_uftp_destlist, align 4
  %46 = tail call ptr @proto_item_add_subtree(ptr noundef %44, i32 noundef %45)
  br label %.lr.ph

.lr.ph:                                           ; preds = %.lr.ph.preheader, %.lr.ph
  %.064 = phi i16 [ %50, %.lr.ph ], [ 0, %.lr.ph.preheader ]
  %.05963 = phi i32 [ %49, %.lr.ph ], [ 20, %.lr.ph.preheader ]
  %47 = load i32, ptr @hf_uftp_dest, align 4
  %48 = tail call ptr @proto_tree_add_item(ptr noundef %46, i32 noundef %47, ptr noundef %0, i32 noundef %.05963, i32 noundef 4, i32 noundef 0)
  %49 = add nuw nsw i32 %.05963, 4
  %50 = add nuw i16 %.064, 1
  %exitcond.not = icmp eq i16 %50, %10
  br i1 %exitcond.not, label %.loopexit, label %.lr.ph, !llvm.loop !13

.loopexit:                                        ; preds = %.lr.ph, %25, %16, %6
  ret void
}